; Function Attrs: mustprogress nofree norecurse nosync nounwind willreturn memory(read, inaccessiblemem: none) uwtable
define hidden noundef zeroext i1 @_ZNK2cv7barcode13UPCEANDecoder7isValidERKNSt7__cxx1112basic_stringIcSt11char_traitsIcESaIcEEE(ptr noundef nonnull readonly align 8 captures(none) dereferenceable(24) %0, ptr noundef nonnull readonly align 8 captures(none) dereferenceable(32) %1) unnamed_addr #4 align 2 {
  %3 = getelementptr inbounds nuw i8, ptr %1, i64 8
  %4 = load i64, ptr %3, align 8, !tbaa !48
  %5 = getelementptr inbounds nuw i8, ptr %0, i64 16
  %6 = load i64, ptr %5, align 8, !tbaa !98
  %.not = icmp eq i64 %4, %6
  br i1 %.not, label %7, label %32

7:                                                ; preds = %2
  %8 = trunc i64 %4 to i32
  %9 = icmp sgt i32 %8, 1
  %.pre = load ptr, ptr %1, align 8, !tbaa !53
  br i1 %9, label %.lr.ph, label %._crit_edge

.lr.ph:                                           ; preds = %7
  %10 = add i64 %4, 4294967294
  %11 = and i64 %10, 4294967295
  br label %21

._crit_edge.loopexit:                             ; preds = %21
  %12 = srem i32 %.016.fr, 10
  br label %._crit_edge

._crit_edge:                                      ; preds = %._crit_edge.loopexit, %7
  %.016.fr.lcssa = phi i32 [ 0, %7 ], [ %12, %._crit_edge.loopexit ]
  %13 = getelementptr i8, ptr %.pre, i64 %4
  %14 = getelementptr i8, ptr %13, i64 -1
  %15 = load i8, ptr %14, align 1, !tbaa !14
  %16 = sext i8 %15 to i32
  %17 = add nsw i32 %16, -48
  %18 = sub nsw i32 10, %.016.fr.lcssa
  %.urem = sub nsw i32 0, %.016.fr.lcssa
  %.cmp = icmp samesign ult i32 %18, 10
  %19 = select i1 %.cmp, i32 %18, i32 %.urem
  %20 = icmp eq i32 %17, %19
  br label %32

21:                                               ; preds = %.lr.ph, %21
  %indvars.iv = phi i64 [ %11, %.lr.ph ], [ %indvars.iv.next, %21 ]
  %.016.fr20 = phi i32 [ 0, %.lr.ph ], [ %.016.fr, %21 ]
  %.01419 = phi i32 [ 1, %.lr.ph ], [ %31, %21 ]
  %22 = getelementptr inbounds nuw i8, ptr %.pre, i64 %indvars.iv
  %23 = load i8, ptr %22, align 1, !tbaa !14
  %24 = sext i8 %23 to i32
  %25 = add nsw i32 %24, -48
  %26 = and i32 %.01419, 1
  %.not17 = icmp eq i32 %26, 0
  %27 = shl nsw i32 %25, 1
  %28 = select i1 %.not17, i32 0, i32 %27
  %29 = add i32 %25, %.016.fr20
  %30 = add i32 %29, %28
  %indvars.iv.next = add nsw i64 %indvars.iv, -1
  %31 = add nuw i32 %.01419, 1
  %.016.fr = freeze i32 %30
  %exitcond.not = icmp eq i32 %31, %8
  br i1 %exitcond.not, label %._crit_edge.loopexit, label %21, !llvm.loop !99

32:                                               ; preds = %2, %._crit_edge
  %.0 = phi i1 [ %20, %._crit_edge ], [ false, %2 ]
  ret i1 %.0
}